target datalayout = "e-m:e-p270:32:32-p271:32:32-p272:64:64-i64:64-i128:128-f80:128-n8:16:32:64-S128"
target triple = "x86_64-pc-linux-gnu"

%struct.wl_list = type { ptr, ptr }
%struct.SDL_WaylandDataDevice = type { ptr, ptr, ptr, i32, ptr, ptr, ptr, i8, i8, ptr, i32, ptr }
%struct.SDL_WaylandDataOffer = type { ptr, %struct.wl_list, ptr, ptr, i32 }
%union.anon.21 = type { double }

@WAYLAND_wl_proxy_get_id = external global ptr, align 8
@.str.17 = private unnamed_addr constant [112 x i8] c". In wl_data_device_listener . data_device_handle_motion on data_offer 0x%08x at %d x %d in window %d serial %d\00", align 1
@.str.18 = private unnamed_addr constant [99 x i8] c". In wl_data_device_listener . data_device_handle_motion on data_offer 0x%08x at %d x %d serial %d\00", align 1

; Function Attrs: inlinehint nounwind uwtable
define internal i32 @wl_fixed_to_int(i32 noundef %0) #2 {
  %2 = alloca i32, align 4
  store i32 %0, ptr %2, align 4
  %3 = load i32, ptr %2, align 4
  %4 = sdiv i32 %3, 256
  ret i32 %4
}

; Function Attrs: inlinehint nounwind uwtable
define internal double @wl_fixed_to_double(i32 noundef %0) #2 {
  %2 = alloca i32, align 4
  %3 = alloca %union.anon.21, align 8
  store i32 %0, ptr %2, align 4
  call void @llvm.lifetime.start.p0(i64 8, ptr %3) #10
  %4 = load i32, ptr %2, align 4
  %5 = sext i32 %4 to i64
  %6 = add nsw i64 4807592602218004480, %5
  store i64 %6, ptr %3, align 8
  %7 = load double, ptr %3, align 8
  %8 = fsub double %7, 0x42B8000000000000
  call void @llvm.lifetime.end.p0(i64 8, ptr %3) #10
  ret double %8
}

; Function Attrs: nounwind uwtable
define internal void @data_device_handle_motion(ptr noundef %0, ptr noundef %1, i32 noundef %2, i32 noundef %3, i32 noundef %4) #0 {
  %6 = alloca ptr, align 8
  %7 = alloca ptr, align 8
  %8 = alloca i32, align 4
  %9 = alloca i32, align 4
  %10 = alloca i32, align 4
  %11 = alloca ptr, align 8
  %12 = alloca float, align 4
  %13 = alloca float, align 4
  store ptr %0, ptr %6, align 8
  store ptr %1, ptr %7, align 8
  store i32 %2, ptr %8, align 4
  store i32 %3, ptr %9, align 4
  store i32 %4, ptr %10, align 4
  call void @llvm.lifetime.start.p0(i64 8, ptr %11) #10
  %14 = load ptr, ptr %6, align 8
  store ptr %14, ptr %11, align 8
  %15 = load ptr, ptr %11, align 8
  %16 = getelementptr inbounds nuw %struct.SDL_WaylandDataDevice, ptr %15, i32 0, i32 4
  %17 = load ptr, ptr %16, align 8
  %18 = icmp ne ptr %17, null
  br i1 %18, label %19, label %65

19:                                               ; preds = %5
  %20 = load ptr, ptr %11, align 8
  %21 = getelementptr inbounds nuw %struct.SDL_WaylandDataDevice, ptr %20, i32 0, i32 9
  %22 = load ptr, ptr %21, align 8
  %23 = icmp ne ptr %22, null
  br i1 %23, label %24, label %65

24:                                               ; preds = %19
  %25 = load ptr, ptr %11, align 8
  %26 = getelementptr inbounds nuw %struct.SDL_WaylandDataDevice, ptr %25, i32 0, i32 7
  %27 = load i8, ptr %26, align 8, !range !7, !noundef !8
  %28 = trunc i8 %27 to i1
  br i1 %28, label %34, label %29

29:                                               ; preds = %24
  %30 = load ptr, ptr %11, align 8
  %31 = getelementptr inbounds nuw %struct.SDL_WaylandDataDevice, ptr %30, i32 0, i32 8
  %32 = load i8, ptr %31, align 1, !range !7, !noundef !8
  %33 = trunc i8 %32 to i1
  br i1 %33, label %34, label %65

34:                                               ; preds = %29, %24
  call void @llvm.lifetime.start.p0(i64 4, ptr %12) #10
  %35 = load i32, ptr %9, align 4
  %36 = call double @wl_fixed_to_double(i32 noundef %35)
  %37 = fptrunc double %36 to float
  store float %37, ptr %12, align 4
  call void @llvm.lifetime.start.p0(i64 4, ptr %13) #10
  %38 = load i32, ptr %10, align 4
  %39 = call double @wl_fixed_to_double(i32 noundef %38)
  %40 = fptrunc double %39 to float
  store float %40, ptr %13, align 4
  %41 = load ptr, ptr %11, align 8
  %42 = getelementptr inbounds nuw %struct.SDL_WaylandDataDevice, ptr %41, i32 0, i32 9
  %43 = load ptr, ptr %42, align 8
  %44 = load float, ptr %12, align 4
  %45 = load float, ptr %13, align 4
  %46 = call zeroext i1 @SDL_SendDropPosition(ptr noundef %43, float noundef %44, float noundef %45)
  %47 = load ptr, ptr @WAYLAND_wl_proxy_get_id, align 8
  %48 = load ptr, ptr %11, align 8
  %49 = getelementptr inbounds nuw %struct.SDL_WaylandDataDevice, ptr %48, i32 0, i32 4
  %50 = load ptr, ptr %49, align 8
  %51 = getelementptr inbounds nuw %struct.SDL_WaylandDataOffer, ptr %50, i32 0, i32 0
  %52 = load ptr, ptr %51, align 8
  %53 = call i32 %47(ptr noundef %52)
  %54 = load i32, ptr %9, align 4
  %55 = call i32 @wl_fixed_to_int(i32 noundef %54)
  %56 = load i32, ptr %10, align 4
  %57 = call i32 @wl_fixed_to_int(i32 noundef %56)
  %58 = load ptr, ptr %11, align 8
  %59 = getelementptr inbounds nuw %struct.SDL_WaylandDataDevice, ptr %58, i32 0, i32 9
  %60 = load ptr, ptr %59, align 8
  %61 = call i32 @SDL_GetWindowID_REAL(ptr noundef %60)
  %62 = load ptr, ptr %11, align 8
  %63 = getelementptr inbounds nuw %struct.SDL_WaylandDataDevice, ptr %62, i32 0, i32 3
  %64 = load i32, ptr %63, align 8
  call void (i32, ptr, ...) @SDL_LogTrace_REAL(i32 noundef 7, ptr noundef @.str.17, i32 noundef %53, i32 noundef %55, i32 noundef %57, i32 noundef %61, i32 noundef %64)
  call void @llvm.lifetime.end.p0(i64 4, ptr %13) #10
  call void @llvm.lifetime.end.p0(i64 4, ptr %12) #10
  br label %70

65:                                               ; preds = %29, %19, %5
  %66 = load i32, ptr %9, align 4
  %67 = call i32 @wl_fixed_to_int(i32 noundef %66)
  %68 = load i32, ptr %10, align 4
  %69 = call i32 @wl_fixed_to_int(i32 noundef %68)
  call void (i32, ptr, ...) @SDL_LogTrace_REAL(i32 noundef 7, ptr noundef @.str.18, i32 noundef -1, i32 noundef %67, i32 noundef %69, i32 noundef -1)
  br label %70

70:                                               ; preds = %65, %34
  call void @llvm.lifetime.end.p0(i64 8, ptr %11) #10
  ret void
}