; Function Attrs: nounwind uwtable
define internal void @data_device_handle_motion(ptr noundef readonly captures(none) %0, ptr readnone captures(none) %1, i32 %2, i32 noundef %3, i32 noundef %4) #0 {
  %6 = getelementptr inbounds nuw i8, ptr %0, i64 32
  %7 = load ptr, ptr %6, align 8
  %.not = icmp eq ptr %7, null
  br i1 %.not, label %41, label %8

8:                                                ; preds = %5
  %9 = getelementptr inbounds nuw i8, ptr %0, i64 64
  %10 = load ptr, ptr %9, align 8
  %.not16 = icmp eq ptr %10, null
  br i1 %.not16, label %41, label %11

11:                                               ; preds = %8
  %12 = getelementptr inbounds nuw i8, ptr %0, i64 56
  %13 = load i8, ptr %12, align 8, !range !6, !noundef !7
  %14 = trunc nuw i8 %13 to i1
  br i1 %14, label %19, label %15

15:                                               ; preds = %11
  %16 = getelementptr inbounds nuw i8, ptr %0, i64 57
  %17 = load i8, ptr %16, align 1, !range !6, !noundef !7
  %18 = trunc nuw i8 %17 to i1
  br i1 %18, label %19, label %41

19:                                               ; preds = %15, %11
  %20 = sext i32 %3 to i64
  %21 = add nsw i64 %20, 4807592602218004480
  %22 = bitcast i64 %21 to double
  %23 = fadd double %22, 0xC2B8000000000000
  %24 = fptrunc double %23 to float
  %25 = sext i32 %4 to i64
  %26 = add nsw i64 %25, 4807592602218004480
  %27 = bitcast i64 %26 to double
  %28 = fadd double %27, 0xC2B8000000000000
  %29 = fptrunc double %28 to float
  %30 = tail call zeroext i1 @SDL_SendDropPosition(ptr noundef nonnull %10, float noundef %24, float noundef %29) #12
  %31 = load ptr, ptr @WAYLAND_wl_proxy_get_id, align 8
  %32 = load ptr, ptr %6, align 8
  %33 = load ptr, ptr %32, align 8
  %34 = tail call i32 %31(ptr noundef %33) #12
  %35 = sdiv i32 %3, 256
  %36 = sdiv i32 %4, 256
  %37 = load ptr, ptr %9, align 8
  %38 = tail call i32 @SDL_GetWindowID_REAL(ptr noundef %37) #12
  %39 = getelementptr inbounds nuw i8, ptr %0, i64 24
  %40 = load i32, ptr %39, align 8
  tail call void (i32, ptr, ...) @SDL_LogTrace_REAL(i32 noundef 7, ptr noundef nonnull @.str.17, i32 noundef %34, i32 noundef %35, i32 noundef %36, i32 noundef %38, i32 noundef %40) #12
  br label %44

41:                                               ; preds = %15, %8, %5
  %42 = sdiv i32 %3, 256
  %43 = sdiv i32 %4, 256
  tail call void (i32, ptr, ...) @SDL_LogTrace_REAL(i32 noundef 7, ptr noundef nonnull @.str.18, i32 noundef -1, i32 noundef %42, i32 noundef %43, i32 noundef -1) #12
  br label %44

44:                                               ; preds = %41, %19
  ret void
}